target datalayout = "e-m:e-p270:32:32-p271:32:32-p272:64:64-i64:64-i128:128-f80:128-n8:16:32:64-S128"
target triple = "x86_64-pc-linux-gnu"

%struct.H5CX_node_t = type { %struct.H5CX_t, ptr }
%struct.H5CX_t = type { i64, ptr, i64, ptr, i64, ptr, i64, ptr, i64, ptr, i64, ptr, i64, i32, i64, i8, ptr, i8, ptr, i8, i32, i8, [3 x double], i8, i64, i8, i32, i8, %struct.H5Z_cb_t, i8, ptr, i8, %struct.H5T_vlen_alloc_info_t, i8, %struct.H5T_conv_cb_t, i8, i32, i8, i8, i8, i32, i8, i8, i32, i8, i8, i32, i8, i32, i8, i64, i8, i8, i8, i8, i8, ptr, i8, ptr, i8, i32, i8, i32, i8, %struct.H5VL_connector_prop_t, i8, ptr, i8 }
%struct.H5Z_cb_t = type { ptr, ptr }
%struct.H5T_vlen_alloc_info_t = type { ptr, ptr, ptr, ptr }
%struct.H5T_conv_cb_t = type { ptr, ptr }
%struct.H5VL_connector_prop_t = type { ptr, ptr }

@H5_libinit_g = external global i8, align 1
@H5_libterm_g = external global i8, align 1
@.str = private unnamed_addr constant [97 x i8] c"generated/home/dtcxzyw/WorkSpace/Projects/compilers/llvm-opt-benchmark/bench/hdf5/hdf5/src/H5G.c\00", align 1
@H5E_FUNC_g = external global i64, align 8
@H5E_CANTINIT_g = external global i64, align 8
@.str.1 = private unnamed_addr constant [30 x i8] c"library initialization failed\00", align 1
@H5G_init_g = external global i8, align 1
@.str.2 = private unnamed_addr constant [32 x i8] c"interface initialization failed\00", align 1
@H5E_CANTSET_g = external global i64, align 8
@.str.3 = private unnamed_addr constant [22 x i8] c"can't set API context\00", align 1
@H5E_SYM_g = external global i64, align 8
@H5E_CANTGET_g = external global i64, align 8
@.str.34 = private unnamed_addr constant [40 x i8] c"can't synchronously retrieve group info\00", align 1
@__func__.H5Gget_info_by_idx = private unnamed_addr constant [19 x i8] c"H5Gget_info_by_idx\00", align 1

; Function Attrs: nounwind uwtable
define i32 @H5Gget_info_by_idx(i64 noundef %0, ptr noundef %1, i32 noundef %2, i32 noundef %3, i64 noundef %4, ptr noundef %5, i64 noundef %6) #0 {
  %8 = alloca i64, align 8
  %9 = alloca ptr, align 8
  %10 = alloca i32, align 4
  %11 = alloca i32, align 4
  %12 = alloca i64, align 8
  %13 = alloca ptr, align 8
  %14 = alloca i64, align 8
  %15 = alloca i32, align 4
  %16 = alloca %struct.H5CX_node_t, align 8
  %17 = alloca i8, align 1
  %18 = alloca i8, align 1
  store i64 %0, ptr %8, align 8, !tbaa !3
  store ptr %1, ptr %9, align 8, !tbaa !7
  store i32 %2, ptr %10, align 4, !tbaa !20
  store i32 %3, ptr %11, align 4, !tbaa !20
  store i64 %4, ptr %12, align 8, !tbaa !3
  store ptr %5, ptr %13, align 8, !tbaa !27
  store i64 %6, ptr %14, align 8, !tbaa !3
  call void @llvm.lifetime.start.p0(i64 4, ptr %15) #5
  store i32 0, ptr %15, align 4, !tbaa !20
  call void @llvm.lifetime.start.p0(i64 480, ptr %16) #5
  call void @llvm.memset.p0.i64(ptr align 8 %16, i8 0, i64 480, i1 false)
  call void @llvm.lifetime.start.p0(i64 1, ptr %17) #5
  store i8 0, ptr %17, align 1, !tbaa !10
  call void @llvm.lifetime.start.p0(i64 1, ptr %18) #5
  store i8 0, ptr %18, align 1, !tbaa !10
  br label %19

19:                                               ; preds = %7
  %20 = load i8, ptr @H5_libinit_g, align 1, !tbaa !10, !range !12, !noundef !13
  %21 = trunc i8 %20 to i1
  br i1 %21, label %26, label %22

22:                                               ; preds = %19
  %23 = load i8, ptr @H5_libterm_g, align 1, !tbaa !10, !range !12, !noundef !13
  %24 = trunc i8 %23 to i1
  %25 = xor i1 %24, true
  br label %26

26:                                               ; preds = %22, %19
  %27 = phi i1 [ false, %19 ], [ %25, %22 ]
  %28 = xor i1 %27, true
  %29 = xor i1 %28, true
  %30 = zext i1 %29 to i32
  %31 = sext i32 %30 to i64
  %32 = call i64 @llvm.expect.i64(i64 %31, i64 0)
  %33 = icmp ne i64 %32, 0
  br i1 %33, label %34, label %63

34:                                               ; preds = %26
  %35 = call i32 @H5_init_library()
  %36 = icmp slt i32 %35, 0
  %37 = xor i1 %36, true
  %38 = xor i1 %37, true
  %39 = zext i1 %38 to i32
  %40 = sext i32 %39 to i64
  %41 = call i64 @llvm.expect.i64(i64 %40, i64 0)
  %42 = icmp ne i64 %41, 0
  br i1 %42, label %43, label %62

43:                                               ; preds = %34
  br label %44

44:                                               ; preds = %43
  br label %45

45:                                               ; preds = %44
  br label %46

46:                                               ; preds = %45
  %47 = load i64, ptr @H5E_FUNC_g, align 8, !tbaa !3
  %48 = load i64, ptr @H5E_CANTINIT_g, align 8, !tbaa !3
  %49 = call i32 (ptr, ptr, i32, i64, i64, ptr, ...) @H5E_printf_stack(ptr noundef @.str, ptr noundef @__func__.H5Gget_info_by_idx, i32 noundef 800, i64 noundef %47, i64 noundef %48, ptr noundef @.str.1)
  br label %50

50:                                               ; preds = %46
  br label %51

51:                                               ; preds = %50
  store i8 1, ptr %18, align 1, !tbaa !10
  %52 = load i8, ptr %18, align 1, !tbaa !10, !range !12, !noundef !13
  %53 = trunc i8 %52 to i1
  %54 = zext i1 %53 to i8
  store i8 %54, ptr %18, align 1, !tbaa !10
  br label %55

55:                                               ; preds = %51
  br label %56

56:                                               ; preds = %55
  br label %57

57:                                               ; preds = %56
  store i32 -1, ptr %15, align 4, !tbaa !20
  br label %166

58:                                               ; No predecessors!
  br label %59

59:                                               ; preds = %58
  br label %60

60:                                               ; preds = %59
  br label %61

61:                                               ; preds = %60
  br label %62

62:                                               ; preds = %61, %34
  br label %63

63:                                               ; preds = %62, %26
  %64 = load i8, ptr @H5G_init_g, align 1, !tbaa !10, !range !12, !noundef !13
  %65 = trunc i8 %64 to i1
  br i1 %65, label %70, label %66

66:                                               ; preds = %63
  %67 = load i8, ptr @H5_libterm_g, align 1, !tbaa !10, !range !12, !noundef !13
  %68 = trunc i8 %67 to i1
  %69 = xor i1 %68, true
  br label %70

70:                                               ; preds = %66, %63
  %71 = phi i1 [ false, %63 ], [ %69, %66 ]
  %72 = xor i1 %71, true
  %73 = xor i1 %72, true
  %74 = zext i1 %73 to i32
  %75 = sext i32 %74 to i64
  %76 = call i64 @llvm.expect.i64(i64 %75, i64 0)
  %77 = icmp ne i64 %76, 0
  br i1 %77, label %78, label %101

78:                                               ; preds = %70
  store i8 1, ptr @H5G_init_g, align 1, !tbaa !10
  %79 = call i32 @H5G__init_package()
  %80 = icmp slt i32 %79, 0
  br i1 %80, label %81, label %100

81:                                               ; preds = %78
  store i8 0, ptr @H5G_init_g, align 1, !tbaa !10
  br label %82

82:                                               ; preds = %81
  br label %83

83:                                               ; preds = %82
  br label %84

84:                                               ; preds = %83
  %85 = load i64, ptr @H5E_FUNC_g, align 8, !tbaa !3
  %86 = load i64, ptr @H5E_CANTINIT_g, align 8, !tbaa !3
  %87 = call i32 (ptr, ptr, i32, i64, i64, ptr, ...) @H5E_printf_stack(ptr noundef @.str, ptr noundef @__func__.H5Gget_info_by_idx, i32 noundef 800, i64 noundef %85, i64 noundef %86, ptr noundef @.str.2)
  br label %88

88:                                               ; preds = %84
  br label %89

89:                                               ; preds = %88
  store i8 1, ptr %18, align 1, !tbaa !10
  %90 = load i8, ptr %18, align 1, !tbaa !10, !range !12, !noundef !13
  %91 = trunc i8 %90 to i1
  %92 = zext i1 %91 to i8
  store i8 %92, ptr %18, align 1, !tbaa !10
  br label %93

93:                                               ; preds = %89
  br label %94

94:                                               ; preds = %93
  br label %95

95:                                               ; preds = %94
  store i32 -1, ptr %15, align 4, !tbaa !20
  br label %166

96:                                               ; No predecessors!
  br label %97

97:                                               ; preds = %96
  br label %98

98:                                               ; preds = %97
  br label %99

99:                                               ; preds = %98
  br label %100

100:                                              ; preds = %99, %78
  br label %101

101:                                              ; preds = %100, %70
  br label %102

102:                                              ; preds = %101
  br label %103

103:                                              ; preds = %102
  br label %104

104:                                              ; preds = %103
  %105 = call i32 @H5CX_push(ptr noundef %16)
  %106 = icmp slt i32 %105, 0
  %107 = xor i1 %106, true
  %108 = xor i1 %107, true
  %109 = zext i1 %108 to i32
  %110 = sext i32 %109 to i64
  %111 = call i64 @llvm.expect.i64(i64 %110, i64 0)
  %112 = icmp ne i64 %111, 0
  br i1 %112, label %113, label %132

113:                                              ; preds = %104
  br label %114

114:                                              ; preds = %113
  br label %115

115:                                              ; preds = %114
  br label %116

116:                                              ; preds = %115
  %117 = load i64, ptr @H5E_FUNC_g, align 8, !tbaa !3
  %118 = load i64, ptr @H5E_CANTSET_g, align 8, !tbaa !3
  %119 = call i32 (ptr, ptr, i32, i64, i64, ptr, ...) @H5E_printf_stack(ptr noundef @.str, ptr noundef @__func__.H5Gget_info_by_idx, i32 noundef 800, i64 noundef %117, i64 noundef %118, ptr noundef @.str.3)
  br label %120

120:                                              ; preds = %116
  br label %121

121:                                              ; preds = %120
  store i8 1, ptr %18, align 1, !tbaa !10
  %122 = load i8, ptr %18, align 1, !tbaa !10, !range !12, !noundef !13
  %123 = trunc i8 %122 to i1
  %124 = zext i1 %123 to i8
  store i8 %124, ptr %18, align 1, !tbaa !10
  br label %125

125:                                              ; preds = %121
  br label %126

126:                                              ; preds = %125
  br label %127

127:                                              ; preds = %126
  store i32 -1, ptr %15, align 4, !tbaa !20
  br label %166

128:                                              ; No predecessors!
  br label %129

129:                                              ; preds = %128
  br label %130

130:                                              ; preds = %129
  br label %131

131:                                              ; preds = %130
  br label %133

132:                                              ; preds = %104
  store i8 1, ptr %17, align 1, !tbaa !10
  br label %133

133:                                              ; preds = %132, %131
  br label %134

134:                                              ; preds = %133
  br label %135

135:                                              ; preds = %134
  %136 = call i32 @H5E_clear_stack()
  %137 = load i64, ptr %8, align 8, !tbaa !3
  %138 = load ptr, ptr %9, align 8, !tbaa !7
  %139 = load i32, ptr %10, align 4, !tbaa !20
  %140 = load i32, ptr %11, align 4, !tbaa !20
  %141 = load i64, ptr %12, align 8, !tbaa !3
  %142 = load ptr, ptr %13, align 8, !tbaa !27
  %143 = load i64, ptr %14, align 8, !tbaa !3
  %144 = call i32 @H5G__get_info_by_idx_api_common(i64 noundef %137, ptr noundef %138, i32 noundef %139, i32 noundef %140, i64 noundef %141, ptr noundef %142, i64 noundef %143, ptr noundef null, ptr noundef null)
  %145 = icmp slt i32 %144, 0
  br i1 %145, label %146, label %165

146:                                              ; preds = %135
  br label %147

147:                                              ; preds = %146
  br label %148

148:                                              ; preds = %147
  br label %149

149:                                              ; preds = %148
  %150 = load i64, ptr @H5E_SYM_g, align 8, !tbaa !3
  %151 = load i64, ptr @H5E_CANTGET_g, align 8, !tbaa !3
  %152 = call i32 (ptr, ptr, i32, i64, i64, ptr, ...) @H5E_printf_stack(ptr noundef @.str, ptr noundef @__func__.H5Gget_info_by_idx, i32 noundef 805, i64 noundef %150, i64 noundef %151, ptr noundef @.str.34)
  br label %153

153:                                              ; preds = %149
  br label %154

154:                                              ; preds = %153
  store i8 1, ptr %18, align 1, !tbaa !10
  %155 = load i8, ptr %18, align 1, !tbaa !10, !range !12, !noundef !13
  %156 = trunc i8 %155 to i1
  %157 = zext i1 %156 to i8
  store i8 %157, ptr %18, align 1, !tbaa !10
  br label %158

158:                                              ; preds = %154
  br label %159

159:                                              ; preds = %158
  br label %160

160:                                              ; preds = %159
  store i32 -1, ptr %15, align 4, !tbaa !20
  br label %166

161:                                              ; No predecessors!
  br label %162

162:                                              ; preds = %161
  br label %163

163:                                              ; preds = %162
  br label %164

164:                                              ; preds = %163
  br label %165

165:                                              ; preds = %164, %135
  br label %166

166:                                              ; preds = %165, %160, %127, %95, %57
  %167 = load i8, ptr %17, align 1, !tbaa !10, !range !12, !noundef !13
  %168 = trunc i8 %167 to i1
  %169 = xor i1 %168, true
  %170 = xor i1 %169, true
  %171 = zext i1 %170 to i32
  %172 = sext i32 %171 to i64
  %173 = call i64 @llvm.expect.i64(i64 %172, i64 1)
  %174 = icmp ne i64 %173, 0
  br i1 %174, label %175, label %177

175:                                              ; preds = %166
  %176 = call i32 @H5CX_pop(i1 noundef zeroext true)
  store i8 0, ptr %17, align 1, !tbaa !10
  br label %177

177:                                              ; preds = %175, %166
  %178 = load i8, ptr %18, align 1, !tbaa !10, !range !12, !noundef !13
  %179 = trunc i8 %178 to i1
  %180 = xor i1 %179, true
  %181 = xor i1 %180, true
  %182 = zext i1 %181 to i32
  %183 = sext i32 %182 to i64
  %184 = call i64 @llvm.expect.i64(i64 %183, i64 0)
  %185 = icmp ne i64 %184, 0
  br i1 %185, label %186, label %188

186:                                              ; preds = %177
  %187 = call i32 @H5E_dump_api_stack()
  br label %188

188:                                              ; preds = %186, %177
  %189 = load i32, ptr %15, align 4, !tbaa !20
  call void @llvm.lifetime.end.p0(i64 1, ptr %18) #5
  call void @llvm.lifetime.end.p0(i64 1, ptr %17) #5
  call void @llvm.lifetime.end.p0(i64 480, ptr %16) #5
  call void @llvm.lifetime.end.p0(i64 4, ptr %15) #5
  ret i32 %189
}