; Function Attrs: nounwind uwtable
define range(i32 -1, 1) i32 @H5Gget_info_by_idx(i64 noundef %0, ptr noundef %1, i32 noundef %2, i32 noundef %3, i64 noundef %4, ptr noundef %5, i64 noundef %6) local_unnamed_addr #0 {
  %8 = alloca %struct.H5CX_node_t, align 8
  call void @llvm.lifetime.start.p0(i64 480, ptr nonnull %8) #4
  call void @llvm.memset.p0.i64(ptr noundef nonnull align 8 dereferenceable(480) %8, i8 0, i64 480, i1 false)
  %9 = load i8, ptr @H5_libinit_g, align 1, !tbaa !3, !range !7, !noundef !8
  %10 = trunc nuw i8 %9 to i1
  %11 = load i8, ptr @H5_libterm_g, align 1, !range !7
  %12 = trunc nuw i8 %11 to i1
  %13 = select i1 %10, i1 true, i1 %12
  br i1 %13, label %21, label %14, !prof !9

14:                                               ; preds = %7
  %15 = tail call i32 @H5_init_library() #4
  %16 = icmp slt i32 %15, 0
  br i1 %16, label %17, label %._crit_edge, !prof !10

._crit_edge:                                      ; preds = %14
  %.pre = load i8, ptr @H5_libterm_g, align 1, !range !7
  br label %21

17:                                               ; preds = %14
  %18 = load i64, ptr @H5E_FUNC_g, align 8, !tbaa !11
  %19 = load i64, ptr @H5E_CANTINIT_g, align 8, !tbaa !11
  %20 = tail call i32 (ptr, ptr, i32, i64, i64, ptr, ...) @H5E_printf_stack(ptr noundef nonnull @.str, ptr noundef nonnull @__func__.H5Gget_info_by_idx, i32 noundef 800, i64 noundef %18, i64 noundef %19, ptr noundef nonnull @.str.1) #4
  br label %.thread20

21:                                               ; preds = %._crit_edge, %7
  %22 = phi i8 [ %.pre, %._crit_edge ], [ %11, %7 ]
  %23 = load i8, ptr @H5G_init_g, align 1, !tbaa !3, !range !7, !noundef !8
  %24 = trunc nuw i8 %23 to i1
  %25 = trunc nuw i8 %22 to i1
  %26 = select i1 %24, i1 true, i1 %25
  br i1 %26, label %34, label %27, !prof !9

27:                                               ; preds = %21
  store i8 1, ptr @H5G_init_g, align 1, !tbaa !3
  %28 = tail call i32 @H5G__init_package() #4
  %29 = icmp slt i32 %28, 0
  br i1 %29, label %30, label %34, !prof !13

30:                                               ; preds = %27
  store i8 0, ptr @H5G_init_g, align 1, !tbaa !3
  %31 = load i64, ptr @H5E_FUNC_g, align 8, !tbaa !11
  %32 = load i64, ptr @H5E_CANTINIT_g, align 8, !tbaa !11
  %33 = tail call i32 (ptr, ptr, i32, i64, i64, ptr, ...) @H5E_printf_stack(ptr noundef nonnull @.str, ptr noundef nonnull @__func__.H5Gget_info_by_idx, i32 noundef 800, i64 noundef %31, i64 noundef %32, ptr noundef nonnull @.str.2) #4
  br label %.thread20

34:                                               ; preds = %21, %27
  %35 = call i32 @H5CX_push(ptr noundef nonnull %8) #4
  %36 = icmp slt i32 %35, 0
  br i1 %36, label %37, label %41, !prof !10

37:                                               ; preds = %34
  %38 = load i64, ptr @H5E_FUNC_g, align 8, !tbaa !11
  %39 = load i64, ptr @H5E_CANTSET_g, align 8, !tbaa !11
  %40 = call i32 (ptr, ptr, i32, i64, i64, ptr, ...) @H5E_printf_stack(ptr noundef nonnull @.str, ptr noundef nonnull @__func__.H5Gget_info_by_idx, i32 noundef 800, i64 noundef %38, i64 noundef %39, ptr noundef nonnull @.str.3) #4
  br label %.thread20

41:                                               ; preds = %34
  %42 = call i32 @H5E_clear_stack() #4
  %43 = call fastcc i32 @H5G__get_info_by_idx_api_common(i64 noundef %0, ptr noundef %1, i32 noundef %2, i32 noundef %3, i64 noundef %4, ptr noundef %5, i64 noundef %6, ptr noundef null, ptr noundef null)
  %44 = icmp slt i32 %43, 0
  br i1 %44, label %.thread25, label %49, !prof !14

.thread25:                                        ; preds = %41
  %45 = load i64, ptr @H5E_SYM_g, align 8, !tbaa !11
  %46 = load i64, ptr @H5E_CANTGET_g, align 8, !tbaa !11
  %47 = call i32 (ptr, ptr, i32, i64, i64, ptr, ...) @H5E_printf_stack(ptr noundef nonnull @.str, ptr noundef nonnull @__func__.H5Gget_info_by_idx, i32 noundef 805, i64 noundef %45, i64 noundef %46, ptr noundef nonnull @.str.34) #4
  %48 = call i32 @H5CX_pop(i1 noundef zeroext true) #4
  br label %.thread20

49:                                               ; preds = %41
  %50 = call i32 @H5CX_pop(i1 noundef zeroext true) #4
  br label %52

.thread20:                                        ; preds = %17, %30, %37, %.thread25
  %51 = call i32 @H5E_dump_api_stack() #4
  br label %52

52:                                               ; preds = %49, %.thread20
  %.0141823 = phi i32 [ -1, %.thread20 ], [ 0, %49 ]
  call void @llvm.lifetime.end.p0(i64 480, ptr nonnull %8) #4
  ret i32 %.0141823
}